Certificate:
    Data:
        Version: 3 (0x2)
        Serial Number:
            2e:ad:73:e8:eb:9b:ba:98:45:4e:a0:61:67:a3:29:c7:4a:41:76:6d
        Signature Algorithm: sha1WithRSAEncryption
        Issuer: C=AU, O=Dodgy Brothers, CN=Dodgy CA
        Validity
            Not Before: Oct 31 21:31:25 2021 GMT
            Not After : Oct 31 21:31:25 2022 GMT
        Subject: C=AU, O=Dodgy Brothers, CN=Brother 1, CN=lastupdate_invalid
        Subject Public Key Info:
            Public Key Algorithm: rsaEncryption
                Public-Key: (2048 bit)
                Modulus:
                    00:be:95:86:fa:71:4c:6a:ea:51:98:50:4b:99:a1:
                    2c:66:15:f3:60:f3:e1:ff:69:fb:ce:48:01:1d:fe:
                    e1:2c:38:b0:e3:bd:8f:4b:48:a7:7e:3a:c6:73:e3:
                    ab:bf:e1:da:6e:96:f5:fe:c3:e4:b4:a8:ad:bc:56:
                    34:d4:96:25:74:27:c3:10:db:35:10:25:1c:8e:4b:
                    81:9b:fb:42:04:7c:6f:3d:e2:38:6c:0e:e4:2e:8e:
                    2a:18:6d:30:cd:67:2a:23:6b:37:cf:05:9f:cc:b7:
                    59:58:7f:ba:c4:0a:3f:8c:a4:ad:cb:98:9c:c0:f2:
                    8f:69:67:0f:c1:4e:33:cf:fc:85:5e:bb:5e:cf:93:
                    b0:cf:d9:f4:52:79:87:b1:f8:4d:15:68:65:d5:b7:
                    19:08:63:7f:5e:b1:34:ad:05:8f:5a:f0:e4:e1:8f:
                    25:f2:5c:5c:61:95:b0:56:2d:31:2b:08:65:79:e5:
                    b1:3b:9d:3e:b9:52:4b:ac:5d:c4:58:66:85:8d:81:
                    b3:04:28:f4:3f:2f:ac:92:01:62:d5:fd:8e:0b:da:
                    02:0c:7a:c7:6e:09:1c:ac:1c:b2:4c:d7:54:b8:26:
                    33:b2:5f:14:f3:b1:f9:3d:62:4d:40:99:6b:b6:e7:
                    89:58:97:d6:d4:4d:ea:4b:68:52:f3:3c:a8:b1:35:
                    88:db
                Exponent: 65537 (0x10001)
        X509v3 extensions:
            X509v3 Subject Key Identifier: 
                A1:DF:33:C3:CF:3E:53:41:A7:68:44:CC:AA:19:E1:84:C9:0D:BC:C6
            X509v3 Authority Key Identifier: 
                keyid:B4:11:33:F1:D7:E2:5E:F7:53:9E:20:22:10:4F:86:06:BF:1F:C9:5E
                DirName:/C=AU/O=Dodgy Brothers/CN=Dodgy CA
                serial:33:6A:68:2F:7B:40:2C:82:B6:95:D6:5A:C6:5A:BB:0C:10:4D:C6:11
            X509v3 Basic Constraints: critical
                CA:TRUE, pathlen:1
            X509v3 Key Usage: 
                Certificate Sign, CRL Sign
            X509v3 Issuer Alternative Name: 
                <EMPTY>

    Signature Algorithm: sha1WithRSAEncryption
    Signature Value:
        64:08:7d:bf:65:3e:85:67:6b:70:71:21:ac:a8:a0:7f:df:40:
        6d:64:32:57:fd:20:c1:ac:af:12:04:f5:99:72:e0:26:43:ff:
        3c:d4:d5:7e:4c:95:39:a4:52:e4:2d:e1:4a:77:2f:c8:3d:6a:
        e8:27:00:7a:37:c1:b1:93:32:68:23:62:94:44:5f:11:40:ac:
        32:f7:73:b6:09:de:ec:bf:c0:0e:e3:58:cc:d6:79:21:cb:50:
        cd:4c:07:15:3c:23:59:b0:46:59:7b:e8:31:7b:88:ff:c1:f8:
        42:31:aa:53:d1:96:f3:9b:1c:dd:a4:b1:c0:a3:0f:21:6d:6f:
        e9:a5:68:6b:b8:90:af:05:08:ed:49:2f:24:91:fa:50:8c:c2:
        aa:ce:82:99:d2:64:f8:05:05:b8:14:fc:57:2a:3a:b9:36:d0:
        f4:92:50:c2:20:8e:97:9b:04:c1:20:e8:e2:30:37:93:28:a6:
        9c:93:5d:2a:dc:e8:72:f6:6f:b7:94:b4:93:9d:ed:da:9d:23:
        a3:2c:c9:10:18:43:15:fe:4c:1a:d0:d1:98:27:0d:3d:f1:f1:
        f2:81:4b:7a:04:9a:fc:5b:43:4c:4b:18:9d:62:df:82:72:9a:
        8b:5a:c1:25:f9:2a:66:e5:15:86:78:c1:32:c6:4e:e4:00:57:
        7a:c6:f1:d2
-----BEGIN CERTIFICATE-----
MIID4zCCAsugAwIBAgIULq1z6OubuphFTqBhZ6Mpx0pBdm0wDQYJKoZIhvcNAQEF
BQAwOTELMAkGA1UEBhMCQVUxFzAVBgNVBAoMDkRvZGd5IEJyb3RoZXJzMREwDwYD
VQQDDAhEb2RneSBDQTAeFw0yMTEwMzEyMTMxMjVaFw0yMjEwMzEyMTMxMjVaMFcx
CzAJBgNVBAYTAkFVMRcwFQYDVQQKDA5Eb2RneSBCcm90aGVyczESMBAGA1UEAwwJ
QnJvdGhlciAxMRswGQYDVQQDDBJsYXN0dXBkYXRlX2ludmFsaWQwggEiMA0GCSqG
SIb3DQEBAQUAA4IBDwAwggEKAoIBAQC+lYb6cUxq6lGYUEuZoSxmFfNg8+H/afvO
SAEd/uEsOLDjvY9LSKd+OsZz46u/4dpulvX+w+S0qK28VjTUliV0J8MQ2zUQJRyO
S4Gb+0IEfG894jhsDuQujioYbTDNZyojazfPBZ/Mt1lYf7rECj+MpK3LmJzA8o9p
Zw/BTjPP/IVeu17Pk7DP2fRSeYex+E0VaGXVtxkIY39esTStBY9a8OThjyXyXFxh
lbBWLTErCGV55bE7nT65UkusXcRYZoWNgbMEKPQ/L6ySAWLV/Y4L2gIMesduCRys
HLJM11S4JjOyXxTzsfk9Yk1AmWu254lYl9bUTepLaFLzPKixNYjbAgMBAAGjgcQw
gcEwHQYDVR0OBBYEFKHfM8PPPlNBp2hEzKoZ4YTJDbzGMHQGA1UdIwRtMGuAFLQR
M/HX4l73U54gIhBPhga/H8leoT2kOzA5MQswCQYDVQQGEwJBVTEXMBUGA1UECgwO
RG9kZ3kgQnJvdGhlcnMxETAPBgNVBAMMCERvZGd5IENBghQzamgve0AsgraV1lrG
WrsMEE3GETASBgNVHRMBAf8ECDAGAQH/AgEBMAsGA1UdDwQEAwIBBjAJBgNVHRIE
AjAAMA0GCSqGSIb3DQEBBQUAA4IBAQBkCH2/ZT6FZ2twcSGsqKB/30BtZDJX/SDB
rK8SBPWZcuAmQ/881NV+TJU5pFLkLeFKdy/IPWroJwB6N8GxkzJoI2KURF8RQKwy
93O2Cd7sv8AO41jM1nkhy1DNTAcVPCNZsEZZe+gxe4j/wfhCMapT0ZbzmxzdpLHA
ow8hbW/ppWhruJCvBQjtSS8kkfpQjMKqzoKZ0mT4BQW4FPxXKjq5NtD0klDCII6X
mwTBIOjiMDeTKKack10q3Ohy9m+3lLSTne3anSOjLMkQGEMV/kwa0NGYJw098fHy
gUt6BJr8W0NMSxidYt+CcpqLWsEl+Spm5RWGeMEyxk7kAFd6xvHS
-----END CERTIFICATE-----
