Certificate:
    Data:
        Version: 3 (0x2)
        Serial Number:
            2e:ad:73:e8:eb:9b:ba:98:45:4e:a0:61:67:a3:29:c7:4a:41:76:70
        Signature Algorithm: sha1WithRSAEncryption
        Issuer: C=AU, O=Dodgy Brothers, CN=Dodgy CA
        Validity
            Not Before: Oct 31 21:31:29 2021 GMT
            Not After : Oct 31 21:31:29 2022 GMT
        Subject: C=AU, O=Dodgy Brothers, CN=Brother 1, CN=nextupdate_invalid
        Subject Public Key Info:
            Public Key Algorithm: rsaEncryption
                Public-Key: (2048 bit)
                Modulus:
                    00:be:95:86:fa:71:4c:6a:ea:51:98:50:4b:99:a1:
                    2c:66:15:f3:60:f3:e1:ff:69:fb:ce:48:01:1d:fe:
                    e1:2c:38:b0:e3:bd:8f:4b:48:a7:7e:3a:c6:73:e3:
                    ab:bf:e1:da:6e:96:f5:fe:c3:e4:b4:a8:ad:bc:56:
                    34:d4:96:25:74:27:c3:10:db:35:10:25:1c:8e:4b:
                    81:9b:fb:42:04:7c:6f:3d:e2:38:6c:0e:e4:2e:8e:
                    2a:18:6d:30:cd:67:2a:23:6b:37:cf:05:9f:cc:b7:
                    59:58:7f:ba:c4:0a:3f:8c:a4:ad:cb:98:9c:c0:f2:
                    8f:69:67:0f:c1:4e:33:cf:fc:85:5e:bb:5e:cf:93:
                    b0:cf:d9:f4:52:79:87:b1:f8:4d:15:68:65:d5:b7:
                    19:08:63:7f:5e:b1:34:ad:05:8f:5a:f0:e4:e1:8f:
                    25:f2:5c:5c:61:95:b0:56:2d:31:2b:08:65:79:e5:
                    b1:3b:9d:3e:b9:52:4b:ac:5d:c4:58:66:85:8d:81:
                    b3:04:28:f4:3f:2f:ac:92:01:62:d5:fd:8e:0b:da:
                    02:0c:7a:c7:6e:09:1c:ac:1c:b2:4c:d7:54:b8:26:
                    33:b2:5f:14:f3:b1:f9:3d:62:4d:40:99:6b:b6:e7:
                    89:58:97:d6:d4:4d:ea:4b:68:52:f3:3c:a8:b1:35:
                    88:db
                Exponent: 65537 (0x10001)
        X509v3 extensions:
            X509v3 Subject Key Identifier: 
                A1:DF:33:C3:CF:3E:53:41:A7:68:44:CC:AA:19:E1:84:C9:0D:BC:C6
            X509v3 Authority Key Identifier: 
                keyid:B4:11:33:F1:D7:E2:5E:F7:53:9E:20:22:10:4F:86:06:BF:1F:C9:5E
                DirName:/C=AU/O=Dodgy Brothers/CN=Dodgy CA
                serial:33:6A:68:2F:7B:40:2C:82:B6:95:D6:5A:C6:5A:BB:0C:10:4D:C6:11
            X509v3 Basic Constraints: critical
                CA:TRUE, pathlen:1
            X509v3 Key Usage: 
                Certificate Sign, CRL Sign
            X509v3 Issuer Alternative Name: 
                <EMPTY>

    Signature Algorithm: sha1WithRSAEncryption
    Signature Value:
        81:04:88:9b:af:8f:f6:90:1b:88:2d:75:ce:35:3d:4c:e6:00:
        e6:e5:60:65:59:73:a3:8d:9b:85:a8:78:85:7d:bf:60:49:5d:
        de:df:8d:bb:a8:5a:9e:57:2a:e1:4e:41:96:4f:cb:f5:18:77:
        40:08:0d:3f:bb:66:30:ad:56:d6:76:f7:c1:47:dc:ac:4f:ea:
        bb:d8:48:2d:33:1d:c6:45:f0:b1:90:d2:17:60:2c:1d:7e:42:
        aa:c9:98:fc:86:ea:9f:d8:38:43:e3:84:2a:9f:7e:26:ba:b5:
        2a:30:66:75:e2:4c:0e:4a:04:cb:dc:07:cc:1c:54:b3:8f:6c:
        54:b3:c6:90:d2:8c:78:48:ff:1f:8b:d7:e6:75:67:46:f3:92:
        5a:68:a4:c9:bd:76:64:83:6e:70:0d:18:ee:45:22:96:29:6c:
        e6:f1:34:99:47:d4:73:9c:77:f1:a7:62:ef:97:9d:42:e0:06:
        1b:19:8a:9a:68:5e:e5:38:57:1d:e6:cf:4c:25:a4:c5:09:d0:
        0f:7d:e9:4e:9b:18:b5:ca:6a:4f:83:38:07:13:fa:eb:f7:3d:
        34:a4:2f:1b:9f:dc:c0:9c:7c:95:b5:fb:a6:52:9f:97:b7:4f:
        5a:7e:63:9f:41:92:6c:76:3d:6f:5d:9a:bf:02:96:49:73:76:
        7d:39:a2:af
-----BEGIN CERTIFICATE-----
MIID4zCCAsugAwIBAgIULq1z6OubuphFTqBhZ6Mpx0pBdnAwDQYJKoZIhvcNAQEF
BQAwOTELMAkGA1UEBhMCQVUxFzAVBgNVBAoMDkRvZGd5IEJyb3RoZXJzMREwDwYD
VQQDDAhEb2RneSBDQTAeFw0yMTEwMzEyMTMxMjlaFw0yMjEwMzEyMTMxMjlaMFcx
CzAJBgNVBAYTAkFVMRcwFQYDVQQKDA5Eb2RneSBCcm90aGVyczESMBAGA1UEAwwJ
QnJvdGhlciAxMRswGQYDVQQDDBJuZXh0dXBkYXRlX2ludmFsaWQwggEiMA0GCSqG
SIb3DQEBAQUAA4IBDwAwggEKAoIBAQC+lYb6cUxq6lGYUEuZoSxmFfNg8+H/afvO
SAEd/uEsOLDjvY9LSKd+OsZz46u/4dpulvX+w+S0qK28VjTUliV0J8MQ2zUQJRyO
S4Gb+0IEfG894jhsDuQujioYbTDNZyojazfPBZ/Mt1lYf7rECj+MpK3LmJzA8o9p
Zw/BTjPP/IVeu17Pk7DP2fRSeYex+E0VaGXVtxkIY39esTStBY9a8OThjyXyXFxh
lbBWLTErCGV55bE7nT65UkusXcRYZoWNgbMEKPQ/L6ySAWLV/Y4L2gIMesduCRys
HLJM11S4JjOyXxTzsfk9Yk1AmWu254lYl9bUTepLaFLzPKixNYjbAgMBAAGjgcQw
gcEwHQYDVR0OBBYEFKHfM8PPPlNBp2hEzKoZ4YTJDbzGMHQGA1UdIwRtMGuAFLQR
M/HX4l73U54gIhBPhga/H8leoT2kOzA5MQswCQYDVQQGEwJBVTEXMBUGA1UECgwO
RG9kZ3kgQnJvdGhlcnMxETAPBgNVBAMMCERvZGd5IENBghQzamgve0AsgraV1lrG
WrsMEE3GETASBgNVHRMBAf8ECDAGAQH/AgEBMAsGA1UdDwQEAwIBBjAJBgNVHRIE
AjAAMA0GCSqGSIb3DQEBBQUAA4IBAQCBBIibr4/2kBuILXXONT1M5gDm5WBlWXOj
jZuFqHiFfb9gSV3e3427qFqeVyrhTkGWT8v1GHdACA0/u2YwrVbWdvfBR9ysT+q7
2EgtMx3GRfCxkNIXYCwdfkKqyZj8huqf2DhD44Qqn34murUqMGZ14kwOSgTL3AfM
HFSzj2xUs8aQ0ox4SP8fi9fmdWdG85JaaKTJvXZkg25wDRjuRSKWKWzm8TSZR9Rz
nHfxp2Lvl51C4AYbGYqaaF7lOFcd5s9MJaTFCdAPfelOmxi1ympPgzgHE/rr9z00
pC8bn9zAnHyVtfumUp+Xt09afmOfQZJsdj1vXZq/ApZJc3Z9OaKv
-----END CERTIFICATE-----
