Certificate:
    Data:
        Version: 3 (0x2)
        Serial Number:
            2e:ad:73:e8:eb:9b:ba:98:45:4e:a0:61:67:a3:29:c7:4a:41:76:73
        Signature Algorithm: sha1WithRSAEncryption
        Issuer: C=AU, O=Dodgy Brothers, CN=Dodgy CA
        Validity
            Not Before: Oct 31 21:31:32 2021 GMT
            Not After : Oct 31 21:31:32 2022 GMT
        Subject: C=AU, O=Dodgy Brothers, CN=Brother 1, CN=both_utctime
        Subject Public Key Info:
            Public Key Algorithm: rsaEncryption
                Public-Key: (2048 bit)
                Modulus:
                    00:be:95:86:fa:71:4c:6a:ea:51:98:50:4b:99:a1:
                    2c:66:15:f3:60:f3:e1:ff:69:fb:ce:48:01:1d:fe:
                    e1:2c:38:b0:e3:bd:8f:4b:48:a7:7e:3a:c6:73:e3:
                    ab:bf:e1:da:6e:96:f5:fe:c3:e4:b4:a8:ad:bc:56:
                    34:d4:96:25:74:27:c3:10:db:35:10:25:1c:8e:4b:
                    81:9b:fb:42:04:7c:6f:3d:e2:38:6c:0e:e4:2e:8e:
                    2a:18:6d:30:cd:67:2a:23:6b:37:cf:05:9f:cc:b7:
                    59:58:7f:ba:c4:0a:3f:8c:a4:ad:cb:98:9c:c0:f2:
                    8f:69:67:0f:c1:4e:33:cf:fc:85:5e:bb:5e:cf:93:
                    b0:cf:d9:f4:52:79:87:b1:f8:4d:15:68:65:d5:b7:
                    19:08:63:7f:5e:b1:34:ad:05:8f:5a:f0:e4:e1:8f:
                    25:f2:5c:5c:61:95:b0:56:2d:31:2b:08:65:79:e5:
                    b1:3b:9d:3e:b9:52:4b:ac:5d:c4:58:66:85:8d:81:
                    b3:04:28:f4:3f:2f:ac:92:01:62:d5:fd:8e:0b:da:
                    02:0c:7a:c7:6e:09:1c:ac:1c:b2:4c:d7:54:b8:26:
                    33:b2:5f:14:f3:b1:f9:3d:62:4d:40:99:6b:b6:e7:
                    89:58:97:d6:d4:4d:ea:4b:68:52:f3:3c:a8:b1:35:
                    88:db
                Exponent: 65537 (0x10001)
        X509v3 extensions:
            X509v3 Subject Key Identifier: 
                A1:DF:33:C3:CF:3E:53:41:A7:68:44:CC:AA:19:E1:84:C9:0D:BC:C6
            X509v3 Authority Key Identifier: 
                keyid:B4:11:33:F1:D7:E2:5E:F7:53:9E:20:22:10:4F:86:06:BF:1F:C9:5E
                DirName:/C=AU/O=Dodgy Brothers/CN=Dodgy CA
                serial:33:6A:68:2F:7B:40:2C:82:B6:95:D6:5A:C6:5A:BB:0C:10:4D:C6:11
            X509v3 Basic Constraints: critical
                CA:TRUE, pathlen:1
            X509v3 Key Usage: 
                Certificate Sign, CRL Sign
            X509v3 Issuer Alternative Name: 
                <EMPTY>

    Signature Algorithm: sha1WithRSAEncryption
    Signature Value:
        80:aa:4d:70:0e:b1:76:b4:11:d7:41:a7:8f:b7:fc:ba:30:8c:
        11:47:03:7b:38:d0:00:81:4b:e7:ba:c4:35:a7:0d:e0:12:d0:
        4f:00:4c:dd:9e:49:15:8f:3e:43:36:25:54:fa:cc:04:8a:e4:
        16:b8:a0:84:dd:ce:8a:39:6a:80:71:39:d8:aa:94:9e:05:14:
        4a:dc:7e:9b:a0:24:52:80:54:35:d7:48:85:cb:e4:df:c6:59:
        1c:84:cd:40:99:93:6f:a8:69:b1:59:7f:0a:36:1a:61:bf:47:
        29:dc:34:a6:b0:f2:91:15:ef:69:b9:d8:70:bc:63:e8:53:4f:
        fd:6f:78:4a:f4:ca:4d:72:bd:eb:47:74:7c:7c:0d:8b:c3:29:
        bc:1b:48:e9:d7:72:65:f1:24:85:f7:f5:7a:70:6b:62:a8:7d:
        41:02:58:96:24:1b:48:be:a0:f6:f7:29:87:f0:2d:aa:1a:ba:
        19:67:c3:e4:61:c9:96:92:85:33:cc:4e:51:49:6a:c3:32:d1:
        37:7a:7b:42:31:ad:d3:a3:8e:17:b5:09:17:d6:99:e2:ad:a6:
        2e:76:e1:8e:4b:76:6c:87:78:fe:39:f4:f2:f4:56:d5:3c:0b:
        c7:6a:ae:3e:9b:77:b7:2f:09:c4:a1:d8:0c:f6:1b:52:b2:69:
        69:b7:f2:62
-----BEGIN CERTIFICATE-----
MIID3TCCAsWgAwIBAgIULq1z6OubuphFTqBhZ6Mpx0pBdnMwDQYJKoZIhvcNAQEF
BQAwOTELMAkGA1UEBhMCQVUxFzAVBgNVBAoMDkRvZGd5IEJyb3RoZXJzMREwDwYD
VQQDDAhEb2RneSBDQTAeFw0yMTEwMzEyMTMxMzJaFw0yMjEwMzEyMTMxMzJaMFEx
CzAJBgNVBAYTAkFVMRcwFQYDVQQKDA5Eb2RneSBCcm90aGVyczESMBAGA1UEAwwJ
QnJvdGhlciAxMRUwEwYDVQQDDAxib3RoX3V0Y3RpbWUwggEiMA0GCSqGSIb3DQEB
AQUAA4IBDwAwggEKAoIBAQC+lYb6cUxq6lGYUEuZoSxmFfNg8+H/afvOSAEd/uEs
OLDjvY9LSKd+OsZz46u/4dpulvX+w+S0qK28VjTUliV0J8MQ2zUQJRyOS4Gb+0IE
fG894jhsDuQujioYbTDNZyojazfPBZ/Mt1lYf7rECj+MpK3LmJzA8o9pZw/BTjPP
/IVeu17Pk7DP2fRSeYex+E0VaGXVtxkIY39esTStBY9a8OThjyXyXFxhlbBWLTEr
CGV55bE7nT65UkusXcRYZoWNgbMEKPQ/L6ySAWLV/Y4L2gIMesduCRysHLJM11S4
JjOyXxTzsfk9Yk1AmWu254lYl9bUTepLaFLzPKixNYjbAgMBAAGjgcQwgcEwHQYD
VR0OBBYEFKHfM8PPPlNBp2hEzKoZ4YTJDbzGMHQGA1UdIwRtMGuAFLQRM/HX4l73
U54gIhBPhga/H8leoT2kOzA5MQswCQYDVQQGEwJBVTEXMBUGA1UECgwORG9kZ3kg
QnJvdGhlcnMxETAPBgNVBAMMCERvZGd5IENBghQzamgve0AsgraV1lrGWrsMEE3G
ETASBgNVHRMBAf8ECDAGAQH/AgEBMAsGA1UdDwQEAwIBBjAJBgNVHRIEAjAAMA0G
CSqGSIb3DQEBBQUAA4IBAQCAqk1wDrF2tBHXQaePt/y6MIwRRwN7ONAAgUvnusQ1
pw3gEtBPAEzdnkkVjz5DNiVU+swEiuQWuKCE3c6KOWqAcTnYqpSeBRRK3H6boCRS
gFQ110iFy+TfxlkchM1AmZNvqGmxWX8KNhphv0cp3DSmsPKRFe9pudhwvGPoU0/9
b3hK9MpNcr3rR3R8fA2Lwym8G0jp13Jl8SSF9/V6cGtiqH1BAliWJBtIvqD29ymH
8C2qGroZZ8PkYcmWkoUzzE5RSWrDMtE3entCMa3To44XtQkX1pniraYuduGOS3Zs
h3j+OfTy9FbVPAvHaq4+m3e3LwnEodgM9htSsmlpt/Ji
-----END CERTIFICATE-----
