Certificate:
    Data:
        Version: 3 (0x2)
        Serial Number:
            2e:ad:73:e8:eb:9b:ba:98:45:4e:a0:61:67:a3:29:c7:4a:41:76:6f
        Signature Algorithm: sha1WithRSAEncryption
        Issuer: C=AU, O=Dodgy Brothers, CN=Dodgy CA
        Validity
            Not Before: Oct 31 21:31:27 2021 GMT
            Not After : Oct 31 21:31:27 2022 GMT
        Subject: C=AU, O=Dodgy Brothers, CN=Brother 1, CN=lastupdate_generalizedtime
        Subject Public Key Info:
            Public Key Algorithm: rsaEncryption
                Public-Key: (2048 bit)
                Modulus:
                    00:be:95:86:fa:71:4c:6a:ea:51:98:50:4b:99:a1:
                    2c:66:15:f3:60:f3:e1:ff:69:fb:ce:48:01:1d:fe:
                    e1:2c:38:b0:e3:bd:8f:4b:48:a7:7e:3a:c6:73:e3:
                    ab:bf:e1:da:6e:96:f5:fe:c3:e4:b4:a8:ad:bc:56:
                    34:d4:96:25:74:27:c3:10:db:35:10:25:1c:8e:4b:
                    81:9b:fb:42:04:7c:6f:3d:e2:38:6c:0e:e4:2e:8e:
                    2a:18:6d:30:cd:67:2a:23:6b:37:cf:05:9f:cc:b7:
                    59:58:7f:ba:c4:0a:3f:8c:a4:ad:cb:98:9c:c0:f2:
                    8f:69:67:0f:c1:4e:33:cf:fc:85:5e:bb:5e:cf:93:
                    b0:cf:d9:f4:52:79:87:b1:f8:4d:15:68:65:d5:b7:
                    19:08:63:7f:5e:b1:34:ad:05:8f:5a:f0:e4:e1:8f:
                    25:f2:5c:5c:61:95:b0:56:2d:31:2b:08:65:79:e5:
                    b1:3b:9d:3e:b9:52:4b:ac:5d:c4:58:66:85:8d:81:
                    b3:04:28:f4:3f:2f:ac:92:01:62:d5:fd:8e:0b:da:
                    02:0c:7a:c7:6e:09:1c:ac:1c:b2:4c:d7:54:b8:26:
                    33:b2:5f:14:f3:b1:f9:3d:62:4d:40:99:6b:b6:e7:
                    89:58:97:d6:d4:4d:ea:4b:68:52:f3:3c:a8:b1:35:
                    88:db
                Exponent: 65537 (0x10001)
        X509v3 extensions:
            X509v3 Subject Key Identifier: 
                A1:DF:33:C3:CF:3E:53:41:A7:68:44:CC:AA:19:E1:84:C9:0D:BC:C6
            X509v3 Authority Key Identifier: 
                keyid:B4:11:33:F1:D7:E2:5E:F7:53:9E:20:22:10:4F:86:06:BF:1F:C9:5E
                DirName:/C=AU/O=Dodgy Brothers/CN=Dodgy CA
                serial:33:6A:68:2F:7B:40:2C:82:B6:95:D6:5A:C6:5A:BB:0C:10:4D:C6:11
            X509v3 Basic Constraints: critical
                CA:TRUE, pathlen:1
            X509v3 Key Usage: 
                Certificate Sign, CRL Sign
            X509v3 Issuer Alternative Name: 
                <EMPTY>

    Signature Algorithm: sha1WithRSAEncryption
    Signature Value:
        1a:14:ed:1b:e4:40:23:58:5c:40:5e:80:4f:22:b5:46:aa:f9:
        c5:2e:90:c4:a2:46:12:6b:bf:2e:c4:23:3c:8d:df:cc:4c:25:
        c0:f5:f0:5c:b8:8c:71:47:ab:43:f2:cb:25:45:ac:f2:0b:5f:
        92:aa:1a:0e:1b:62:93:0d:67:d7:a6:33:6e:57:fb:03:e5:63:
        f3:b7:3c:ed:70:8b:b0:3d:8e:84:a4:46:a9:78:76:94:b0:04:
        67:c2:f8:fe:4a:81:6c:dd:e1:72:e0:80:df:3e:cc:5b:b0:18:
        a8:c6:5c:29:7b:af:bb:41:6d:76:8e:a9:54:1b:be:d0:2a:89:
        5a:2b:10:f5:66:f0:93:42:c7:ed:2a:a8:07:ff:14:11:cc:14:
        62:6d:62:00:e9:1d:50:8c:c0:41:d6:71:e5:28:69:f4:2d:41:
        89:cc:5b:b1:be:a7:2c:69:a5:46:d8:9a:3e:25:33:be:3c:00:
        e0:6f:8d:35:c7:6c:d7:10:c9:15:d2:e5:81:57:5f:0f:fe:7b:
        06:05:9c:0f:fc:95:f5:30:d1:f3:e6:17:e9:0d:0f:a0:44:5d:
        c7:4a:35:c1:45:63:06:c7:d8:45:33:c8:8a:2f:0c:66:60:1f:
        26:f4:54:f1:69:cb:af:1f:bf:d7:0d:42:30:8d:63:84:69:d3:
        d8:77:61:61
-----BEGIN CERTIFICATE-----
MIID6zCCAtOgAwIBAgIULq1z6OubuphFTqBhZ6Mpx0pBdm8wDQYJKoZIhvcNAQEF
BQAwOTELMAkGA1UEBhMCQVUxFzAVBgNVBAoMDkRvZGd5IEJyb3RoZXJzMREwDwYD
VQQDDAhEb2RneSBDQTAeFw0yMTEwMzEyMTMxMjdaFw0yMjEwMzEyMTMxMjdaMF8x
CzAJBgNVBAYTAkFVMRcwFQYDVQQKDA5Eb2RneSBCcm90aGVyczESMBAGA1UEAwwJ
QnJvdGhlciAxMSMwIQYDVQQDDBpsYXN0dXBkYXRlX2dlbmVyYWxpemVkdGltZTCC
ASIwDQYJKoZIhvcNAQEBBQADggEPADCCAQoCggEBAL6VhvpxTGrqUZhQS5mhLGYV
82Dz4f9p+85IAR3+4Sw4sOO9j0tIp346xnPjq7/h2m6W9f7D5LSorbxWNNSWJXQn
wxDbNRAlHI5LgZv7QgR8bz3iOGwO5C6OKhhtMM1nKiNrN88Fn8y3WVh/usQKP4yk
rcuYnMDyj2lnD8FOM8/8hV67Xs+TsM/Z9FJ5h7H4TRVoZdW3GQhjf16xNK0Fj1rw
5OGPJfJcXGGVsFYtMSsIZXnlsTudPrlSS6xdxFhmhY2BswQo9D8vrJIBYtX9jgva
Agx6x24JHKwcskzXVLgmM7JfFPOx+T1iTUCZa7bniViX1tRN6ktoUvM8qLE1iNsC
AwEAAaOBxDCBwTAdBgNVHQ4EFgQUod8zw88+U0GnaETMqhnhhMkNvMYwdAYDVR0j
BG0wa4AUtBEz8dfiXvdTniAiEE+GBr8fyV6hPaQ7MDkxCzAJBgNVBAYTAkFVMRcw
FQYDVQQKDA5Eb2RneSBCcm90aGVyczERMA8GA1UEAwwIRG9kZ3kgQ0GCFDNqaC97
QCyCtpXWWsZauwwQTcYRMBIGA1UdEwEB/wQIMAYBAf8CAQEwCwYDVR0PBAQDAgEG
MAkGA1UdEgQCMAAwDQYJKoZIhvcNAQEFBQADggEBABoU7RvkQCNYXEBegE8itUaq
+cUukMSiRhJrvy7EIzyN38xMJcD18Fy4jHFHq0PyyyVFrPILX5KqGg4bYpMNZ9em
M25X+wPlY/O3PO1wi7A9joSkRql4dpSwBGfC+P5KgWzd4XLggN8+zFuwGKjGXCl7
r7tBbXaOqVQbvtAqiVorEPVm8JNCx+0qqAf/FBHMFGJtYgDpHVCMwEHWceUoafQt
QYnMW7G+pyxppUbYmj4lM748AOBvjTXHbNcQyRXS5YFXXw/+ewYFnA/8lfUw0fPm
F+kND6BEXcdKNcFFYwbH2EUzyIovDGZgHyb0VPFpy68fv9cNQjCNY4Rp09h3YWE=
-----END CERTIFICATE-----
