Certificate:
    Data:
        Version: 3 (0x2)
        Serial Number:
            2e:ad:73:e8:eb:9b:ba:98:45:4e:a0:61:67:a3:29:c7:4a:41:76:71
        Signature Algorithm: sha1WithRSAEncryption
        Issuer: C=AU, O=Dodgy Brothers, CN=Dodgy CA
        Validity
            Not Before: Oct 31 21:31:30 2021 GMT
            Not After : Oct 31 21:31:30 2022 GMT
        Subject: C=AU, O=Dodgy Brothers, CN=Brother 1, CN=nextupdate_utctime
        Subject Public Key Info:
            Public Key Algorithm: rsaEncryption
                Public-Key: (2048 bit)
                Modulus:
                    00:be:95:86:fa:71:4c:6a:ea:51:98:50:4b:99:a1:
                    2c:66:15:f3:60:f3:e1:ff:69:fb:ce:48:01:1d:fe:
                    e1:2c:38:b0:e3:bd:8f:4b:48:a7:7e:3a:c6:73:e3:
                    ab:bf:e1:da:6e:96:f5:fe:c3:e4:b4:a8:ad:bc:56:
                    34:d4:96:25:74:27:c3:10:db:35:10:25:1c:8e:4b:
                    81:9b:fb:42:04:7c:6f:3d:e2:38:6c:0e:e4:2e:8e:
                    2a:18:6d:30:cd:67:2a:23:6b:37:cf:05:9f:cc:b7:
                    59:58:7f:ba:c4:0a:3f:8c:a4:ad:cb:98:9c:c0:f2:
                    8f:69:67:0f:c1:4e:33:cf:fc:85:5e:bb:5e:cf:93:
                    b0:cf:d9:f4:52:79:87:b1:f8:4d:15:68:65:d5:b7:
                    19:08:63:7f:5e:b1:34:ad:05:8f:5a:f0:e4:e1:8f:
                    25:f2:5c:5c:61:95:b0:56:2d:31:2b:08:65:79:e5:
                    b1:3b:9d:3e:b9:52:4b:ac:5d:c4:58:66:85:8d:81:
                    b3:04:28:f4:3f:2f:ac:92:01:62:d5:fd:8e:0b:da:
                    02:0c:7a:c7:6e:09:1c:ac:1c:b2:4c:d7:54:b8:26:
                    33:b2:5f:14:f3:b1:f9:3d:62:4d:40:99:6b:b6:e7:
                    89:58:97:d6:d4:4d:ea:4b:68:52:f3:3c:a8:b1:35:
                    88:db
                Exponent: 65537 (0x10001)
        X509v3 extensions:
            X509v3 Subject Key Identifier: 
                A1:DF:33:C3:CF:3E:53:41:A7:68:44:CC:AA:19:E1:84:C9:0D:BC:C6
            X509v3 Authority Key Identifier: 
                keyid:B4:11:33:F1:D7:E2:5E:F7:53:9E:20:22:10:4F:86:06:BF:1F:C9:5E
                DirName:/C=AU/O=Dodgy Brothers/CN=Dodgy CA
                serial:33:6A:68:2F:7B:40:2C:82:B6:95:D6:5A:C6:5A:BB:0C:10:4D:C6:11
            X509v3 Basic Constraints: critical
                CA:TRUE, pathlen:1
            X509v3 Key Usage: 
                Certificate Sign, CRL Sign
            X509v3 Issuer Alternative Name: 
                <EMPTY>

    Signature Algorithm: sha1WithRSAEncryption
    Signature Value:
        18:d5:ce:b3:c3:8c:44:32:5b:a6:7e:a2:3e:89:10:d5:85:cf:
        1e:4a:fb:e1:e6:71:2c:88:31:ed:55:87:de:5e:18:57:08:e9:
        33:68:e3:10:37:d6:18:11:07:e2:42:23:5f:d4:29:57:1f:7f:
        5d:6d:1c:c7:e8:3b:90:08:d3:b2:bf:52:d9:56:f5:33:2e:cf:
        33:4b:82:9f:83:3c:17:d5:64:51:1a:ba:80:28:85:bb:d0:1c:
        ae:3a:f6:7a:a6:7a:51:61:c0:8f:4a:c3:53:a1:77:05:a2:c1:
        1f:4b:89:07:80:2a:b0:f5:38:f4:ba:f8:45:72:91:98:4b:df:
        16:ad:50:1a:9c:0c:15:e2:71:04:d3:78:83:7e:45:bd:8f:3b:
        17:9e:fa:c2:e0:00:91:52:d8:66:47:ef:4d:fe:96:41:1d:6f:
        98:c2:8b:e9:a2:45:40:8a:35:ee:02:c0:19:38:9b:12:47:e0:
        2c:90:f1:b0:df:ef:8e:06:0f:2f:d7:3d:dc:9b:dd:5b:ce:26:
        c5:21:64:77:4c:b3:4f:84:15:e4:88:c6:10:6e:b5:a5:51:d3:
        65:21:c4:62:7e:78:b2:90:b0:1e:6d:a1:eb:5e:e8:15:02:61:
        09:29:c7:53:15:36:84:f0:36:e7:88:b0:41:9a:80:20:26:4e:
        aa:81:da:e4
-----BEGIN CERTIFICATE-----
MIID4zCCAsugAwIBAgIULq1z6OubuphFTqBhZ6Mpx0pBdnEwDQYJKoZIhvcNAQEF
BQAwOTELMAkGA1UEBhMCQVUxFzAVBgNVBAoMDkRvZGd5IEJyb3RoZXJzMREwDwYD
VQQDDAhEb2RneSBDQTAeFw0yMTEwMzEyMTMxMzBaFw0yMjEwMzEyMTMxMzBaMFcx
CzAJBgNVBAYTAkFVMRcwFQYDVQQKDA5Eb2RneSBCcm90aGVyczESMBAGA1UEAwwJ
QnJvdGhlciAxMRswGQYDVQQDDBJuZXh0dXBkYXRlX3V0Y3RpbWUwggEiMA0GCSqG
SIb3DQEBAQUAA4IBDwAwggEKAoIBAQC+lYb6cUxq6lGYUEuZoSxmFfNg8+H/afvO
SAEd/uEsOLDjvY9LSKd+OsZz46u/4dpulvX+w+S0qK28VjTUliV0J8MQ2zUQJRyO
S4Gb+0IEfG894jhsDuQujioYbTDNZyojazfPBZ/Mt1lYf7rECj+MpK3LmJzA8o9p
Zw/BTjPP/IVeu17Pk7DP2fRSeYex+E0VaGXVtxkIY39esTStBY9a8OThjyXyXFxh
lbBWLTErCGV55bE7nT65UkusXcRYZoWNgbMEKPQ/L6ySAWLV/Y4L2gIMesduCRys
HLJM11S4JjOyXxTzsfk9Yk1AmWu254lYl9bUTepLaFLzPKixNYjbAgMBAAGjgcQw
gcEwHQYDVR0OBBYEFKHfM8PPPlNBp2hEzKoZ4YTJDbzGMHQGA1UdIwRtMGuAFLQR
M/HX4l73U54gIhBPhga/H8leoT2kOzA5MQswCQYDVQQGEwJBVTEXMBUGA1UECgwO
RG9kZ3kgQnJvdGhlcnMxETAPBgNVBAMMCERvZGd5IENBghQzamgve0AsgraV1lrG
WrsMEE3GETASBgNVHRMBAf8ECDAGAQH/AgEBMAsGA1UdDwQEAwIBBjAJBgNVHRIE
AjAAMA0GCSqGSIb3DQEBBQUAA4IBAQAY1c6zw4xEMlumfqI+iRDVhc8eSvvh5nEs
iDHtVYfeXhhXCOkzaOMQN9YYEQfiQiNf1ClXH39dbRzH6DuQCNOyv1LZVvUzLs8z
S4KfgzwX1WRRGrqAKIW70ByuOvZ6pnpRYcCPSsNToXcFosEfS4kHgCqw9Tj0uvhF
cpGYS98WrVAanAwV4nEE03iDfkW9jzsXnvrC4ACRUthmR+9N/pZBHW+YwovpokVA
ijXuAsAZOJsSR+AskPGw3++OBg8v1z3cm91bzibFIWR3TLNPhBXkiMYQbrWlUdNl
IcRifniykLAebaHrXugVAmEJKcdTFTaE8DbniLBBmoAgJk6qgdrk
-----END CERTIFICATE-----
