Certificate:
    Data:
        Version: 3 (0x2)
        Serial Number:
            2e:ad:73:e8:eb:9b:ba:98:45:4e:a0:61:67:a3:29:c7:4a:41:76:6a
        Signature Algorithm: sha256WithRSAEncryption
        Issuer: C=AU, O=Dodgy Brothers, CN=Dodgy CA
        Validity
            Not Before: Oct 31 21:31:23 2021 GMT
            Not After : Oct 31 21:31:23 2022 GMT
        Subject: C=AU, O=Dodgy Brothers, CN=Brother 1, CN=Brother 2
        Subject Public Key Info:
            Public Key Algorithm: rsaEncryption
                Public-Key: (2048 bit)
                Modulus:
                    00:a8:ff:89:58:61:85:ae:de:db:2c:0f:d5:73:fb:
                    e2:b7:a8:1b:7a:75:60:2b:d4:7d:3c:73:76:b5:ae:
                    de:93:2f:7f:24:90:6d:c9:1c:f4:8a:38:cd:9f:a2:
                    80:16:56:cb:b4:2c:bb:93:e5:17:1f:ff:0d:c6:43:
                    fe:31:34:f8:28:d8:75:e9:a3:bb:88:82:ef:a3:72:
                    e2:53:62:05:45:4d:e0:31:97:ef:aa:9d:10:d2:58:
                    0d:9e:06:9e:32:bb:1b:08:56:5d:65:0f:3f:66:8e:
                    c2:36:a0:11:ff:c0:59:35:fd:49:1c:dd:1c:42:33:
                    06:78:ae:04:38:23:e5:e7:75:67:d3:94:ad:5a:a9:
                    40:1f:ac:59:10:f5:0c:c1:64:ad:4a:c4:c6:35:53:
                    b3:96:6a:82:1b:15:8b:d1:99:ab:e4:9e:6f:94:aa:
                    d2:96:e5:57:fb:8c:91:64:8a:3c:24:16:c6:d2:19:
                    be:82:60:13:3b:62:b0:ed:3e:1d:b3:ca:f9:6b:df:
                    31:b9:7a:9e:4b:47:68:a7:29:c7:3f:4a:e2:22:27:
                    b4:ef:90:63:d7:ef:d0:72:49:3e:5b:ad:b9:1b:d4:
                    2b:6f:86:68:dd:d5:73:12:b8:43:c9:dc:41:0f:a2:
                    a3:46:4f:8b:67:88:84:0f:61:fe:79:34:1f:4a:89:
                    1f:b7
                Exponent: 65537 (0x10001)
        X509v3 extensions:
            X509v3 Basic Constraints: 
                CA:FALSE
            X509v3 Subject Key Identifier: 
                E7:9B:E2:2A:AD:8A:6C:3A:CB:76:51:E5:8E:07:98:22:97:E1:73:A2
            X509v3 Authority Key Identifier: 
                B4:11:33:F1:D7:E2:5E:F7:53:9E:20:22:10:4F:86:06:BF:1F:C9:5E
    Signature Algorithm: sha256WithRSAEncryption
    Signature Value:
        0e:9a:bb:95:9d:1e:aa:dc:3f:9a:ab:af:81:cc:ba:57:70:81:
        44:b3:cb:5b:ab:10:03:e8:a5:82:17:e7:83:97:7f:23:f6:e5:
        7b:60:98:07:a4:57:40:f4:4f:69:56:f6:14:ef:df:24:38:93:
        58:58:db:a6:54:86:72:8f:79:bf:15:29:ae:4d:1f:c1:e9:f0:
        3e:ee:1a:f6:ea:e8:3c:62:1f:9f:6b:72:69:df:4f:55:92:14:
        23:23:f8:22:50:fd:47:e8:cb:71:64:7c:de:65:42:c5:ca:b0:
        71:b3:ae:06:ae:fe:56:71:3c:c0:b2:fe:3b:53:4c:c1:a8:96:
        a9:ff:4f:fc:0a:c0:20:11:b1:3d:e3:5b:7b:e5:fc:13:dc:29:
        40:5f:ee:ab:53:30:70:c5:c0:20:b7:a4:e8:b5:43:e9:91:21:
        89:7e:53:d4:f4:a2:72:3e:aa:38:3e:57:a8:6f:f3:5f:46:66:
        22:55:db:d3:9c:b1:b5:05:c3:a9:f8:c7:3c:63:ad:45:65:43:
        01:d9:e0:07:e6:06:e8:43:1c:83:b7:73:25:de:c4:e1:c8:b9:
        0c:69:f5:ef:c6:e5:ff:89:c9:cb:e8:cf:3b:86:90:b8:80:ec:
        06:46:83:6e:11:51:9a:a6:7e:33:bc:17:9b:ff:54:4f:88:e3:
        33:cc:d9:17
-----BEGIN CERTIFICATE-----
MIIDYjCCAkqgAwIBAgIULq1z6OubuphFTqBhZ6Mpx0pBdmowDQYJKoZIhvcNAQEL
BQAwOTELMAkGA1UEBhMCQVUxFzAVBgNVBAoMDkRvZGd5IEJyb3RoZXJzMREwDwYD
VQQDDAhEb2RneSBDQTAeFw0yMTEwMzEyMTMxMjNaFw0yMjEwMzEyMTMxMjNaME4x
CzAJBgNVBAYTAkFVMRcwFQYDVQQKDA5Eb2RneSBCcm90aGVyczESMBAGA1UEAwwJ
QnJvdGhlciAxMRIwEAYDVQQDDAlCcm90aGVyIDIwggEiMA0GCSqGSIb3DQEBAQUA
A4IBDwAwggEKAoIBAQCo/4lYYYWu3tssD9Vz++K3qBt6dWAr1H08c3a1rt6TL38k
kG3JHPSKOM2fooAWVsu0LLuT5Rcf/w3GQ/4xNPgo2HXpo7uIgu+jcuJTYgVFTeAx
l++qnRDSWA2eBp4yuxsIVl1lDz9mjsI2oBH/wFk1/Ukc3RxCMwZ4rgQ4I+XndWfT
lK1aqUAfrFkQ9QzBZK1KxMY1U7OWaoIbFYvRmavknm+UqtKW5Vf7jJFkijwkFsbS
Gb6CYBM7YrDtPh2zyvlr3zG5ep5LR2inKcc/SuIiJ7TvkGPX79ByST5brbkb1Ctv
hmjd1XMSuEPJ3EEPoqNGT4tniIQPYf55NB9KiR+3AgMBAAGjTTBLMAkGA1UdEwQC
MAAwHQYDVR0OBBYEFOeb4iqtimw6y3ZR5Y4HmCKX4XOiMB8GA1UdIwQYMBaAFLQR
M/HX4l73U54gIhBPhga/H8leMA0GCSqGSIb3DQEBCwUAA4IBAQAOmruVnR6q3D+a
q6+BzLpXcIFEs8tbqxAD6KWCF+eDl38j9uV7YJgHpFdA9E9pVvYU798kOJNYWNum
VIZyj3m/FSmuTR/B6fA+7hr26ug8Yh+fa3Jp309VkhQjI/giUP1H6MtxZHzeZULF
yrBxs64Grv5WcTzAsv47U0zBqJap/0/8CsAgEbE941t75fwT3ClAX+6rUzBwxcAg
t6TotUPpkSGJflPU9KJyPqo4Pleob/NfRmYiVdvTnLG1BcOp+Mc8Y61FZUMB2eAH
5gboQxyDt3Ml3sThyLkMafXvxuX/icnL6M87hpC4gOwGRoNuEVGapn4zvBeb/1RP
iOMzzNkX
-----END CERTIFICATE-----
