Certificate:
    Data:
        Version: 3 (0x2)
        Serial Number:
            2e:ad:73:e8:eb:9b:ba:98:45:4e:a0:61:67:a3:29:c7:4a:41:76:74
        Signature Algorithm: sha1WithRSAEncryption
        Issuer: C=AU, O=Dodgy Brothers, CN=Dodgy CA
        Validity
            Not Before: Oct 31 21:31:33 2021 GMT
            Not After : Oct 31 21:31:33 2022 GMT
        Subject: C=AU, O=Dodgy Brothers, CN=Brother 1, CN=both_generalizedtime
        Subject Public Key Info:
            Public Key Algorithm: rsaEncryption
                Public-Key: (2048 bit)
                Modulus:
                    00:be:95:86:fa:71:4c:6a:ea:51:98:50:4b:99:a1:
                    2c:66:15:f3:60:f3:e1:ff:69:fb:ce:48:01:1d:fe:
                    e1:2c:38:b0:e3:bd:8f:4b:48:a7:7e:3a:c6:73:e3:
                    ab:bf:e1:da:6e:96:f5:fe:c3:e4:b4:a8:ad:bc:56:
                    34:d4:96:25:74:27:c3:10:db:35:10:25:1c:8e:4b:
                    81:9b:fb:42:04:7c:6f:3d:e2:38:6c:0e:e4:2e:8e:
                    2a:18:6d:30:cd:67:2a:23:6b:37:cf:05:9f:cc:b7:
                    59:58:7f:ba:c4:0a:3f:8c:a4:ad:cb:98:9c:c0:f2:
                    8f:69:67:0f:c1:4e:33:cf:fc:85:5e:bb:5e:cf:93:
                    b0:cf:d9:f4:52:79:87:b1:f8:4d:15:68:65:d5:b7:
                    19:08:63:7f:5e:b1:34:ad:05:8f:5a:f0:e4:e1:8f:
                    25:f2:5c:5c:61:95:b0:56:2d:31:2b:08:65:79:e5:
                    b1:3b:9d:3e:b9:52:4b:ac:5d:c4:58:66:85:8d:81:
                    b3:04:28:f4:3f:2f:ac:92:01:62:d5:fd:8e:0b:da:
                    02:0c:7a:c7:6e:09:1c:ac:1c:b2:4c:d7:54:b8:26:
                    33:b2:5f:14:f3:b1:f9:3d:62:4d:40:99:6b:b6:e7:
                    89:58:97:d6:d4:4d:ea:4b:68:52:f3:3c:a8:b1:35:
                    88:db
                Exponent: 65537 (0x10001)
        X509v3 extensions:
            X509v3 Subject Key Identifier: 
                A1:DF:33:C3:CF:3E:53:41:A7:68:44:CC:AA:19:E1:84:C9:0D:BC:C6
            X509v3 Authority Key Identifier: 
                keyid:B4:11:33:F1:D7:E2:5E:F7:53:9E:20:22:10:4F:86:06:BF:1F:C9:5E
                DirName:/C=AU/O=Dodgy Brothers/CN=Dodgy CA
                serial:33:6A:68:2F:7B:40:2C:82:B6:95:D6:5A:C6:5A:BB:0C:10:4D:C6:11
            X509v3 Basic Constraints: critical
                CA:TRUE, pathlen:1
            X509v3 Key Usage: 
                Certificate Sign, CRL Sign
            X509v3 Issuer Alternative Name: 
                <EMPTY>

    Signature Algorithm: sha1WithRSAEncryption
    Signature Value:
        31:db:21:98:d5:2f:36:f8:6f:75:6b:18:56:c0:04:5f:59:5e:
        66:d4:59:dc:8c:a2:71:61:45:6e:03:95:0a:e5:d2:4a:dd:76:
        ca:a4:93:16:35:18:27:54:af:05:e8:56:38:5e:b1:8a:7c:9b:
        78:09:8e:f8:6e:c0:39:31:0e:10:f0:19:a8:21:71:93:93:15:
        4c:21:a7:f8:d6:ff:41:ab:c1:27:e6:9b:8d:3b:1b:a7:bd:1c:
        c3:a0:8d:c9:93:f8:a5:0e:90:1f:6a:da:93:59:8f:e4:88:b1:
        02:97:db:fa:70:0b:07:6e:29:1c:31:6c:d5:0b:22:ec:25:23:
        80:15:66:1a:6b:9f:6d:b8:1d:cf:08:8a:ac:6b:29:d6:c2:bc:
        0e:b5:a0:a4:b5:d9:a6:c9:5c:23:ca:e8:c2:cf:11:f0:34:26:
        c4:58:03:b6:05:d2:ce:24:5c:d4:b9:13:a1:d9:d5:af:18:ea:
        15:8a:4b:dc:36:4b:94:bf:4b:ea:91:d6:6c:12:a2:e1:57:ec:
        17:ef:26:d5:f9:6e:41:ee:2c:64:fe:6b:4d:83:e1:59:fc:cf:
        3b:2b:90:56:f4:3b:47:7e:57:b2:d8:8c:4a:87:aa:79:71:84:
        1f:75:65:68:b1:de:5e:2b:e3:be:a7:c5:27:51:72:6a:b8:f0:
        cf:61:51:c7
-----BEGIN CERTIFICATE-----
MIID5TCCAs2gAwIBAgIULq1z6OubuphFTqBhZ6Mpx0pBdnQwDQYJKoZIhvcNAQEF
BQAwOTELMAkGA1UEBhMCQVUxFzAVBgNVBAoMDkRvZGd5IEJyb3RoZXJzMREwDwYD
VQQDDAhEb2RneSBDQTAeFw0yMTEwMzEyMTMxMzNaFw0yMjEwMzEyMTMxMzNaMFkx
CzAJBgNVBAYTAkFVMRcwFQYDVQQKDA5Eb2RneSBCcm90aGVyczESMBAGA1UEAwwJ
QnJvdGhlciAxMR0wGwYDVQQDDBRib3RoX2dlbmVyYWxpemVkdGltZTCCASIwDQYJ
KoZIhvcNAQEBBQADggEPADCCAQoCggEBAL6VhvpxTGrqUZhQS5mhLGYV82Dz4f9p
+85IAR3+4Sw4sOO9j0tIp346xnPjq7/h2m6W9f7D5LSorbxWNNSWJXQnwxDbNRAl
HI5LgZv7QgR8bz3iOGwO5C6OKhhtMM1nKiNrN88Fn8y3WVh/usQKP4ykrcuYnMDy
j2lnD8FOM8/8hV67Xs+TsM/Z9FJ5h7H4TRVoZdW3GQhjf16xNK0Fj1rw5OGPJfJc
XGGVsFYtMSsIZXnlsTudPrlSS6xdxFhmhY2BswQo9D8vrJIBYtX9jgvaAgx6x24J
HKwcskzXVLgmM7JfFPOx+T1iTUCZa7bniViX1tRN6ktoUvM8qLE1iNsCAwEAAaOB
xDCBwTAdBgNVHQ4EFgQUod8zw88+U0GnaETMqhnhhMkNvMYwdAYDVR0jBG0wa4AU
tBEz8dfiXvdTniAiEE+GBr8fyV6hPaQ7MDkxCzAJBgNVBAYTAkFVMRcwFQYDVQQK
DA5Eb2RneSBCcm90aGVyczERMA8GA1UEAwwIRG9kZ3kgQ0GCFDNqaC97QCyCtpXW
WsZauwwQTcYRMBIGA1UdEwEB/wQIMAYBAf8CAQEwCwYDVR0PBAQDAgEGMAkGA1Ud
EgQCMAAwDQYJKoZIhvcNAQEFBQADggEBADHbIZjVLzb4b3VrGFbABF9ZXmbUWdyM
onFhRW4DlQrl0krddsqkkxY1GCdUrwXoVjhesYp8m3gJjvhuwDkxDhDwGaghcZOT
FUwhp/jW/0GrwSfmm407G6e9HMOgjcmT+KUOkB9q2pNZj+SIsQKX2/pwCwduKRwx
bNULIuwlI4AVZhprn224Hc8IiqxrKdbCvA61oKS12abJXCPK6MLPEfA0JsRYA7YF
0s4kXNS5E6HZ1a8Y6hWKS9w2S5S/S+qR1mwSouFX7BfvJtX5bkHuLGT+a02D4Vn8
zzsrkFb0O0d+V7LYjEqHqnlxhB91ZWix3l4r476nxSdRcmq48M9hUcc=
-----END CERTIFICATE-----
