Certificate:
    Data:
        Version: 3 (0x2)
        Serial Number:
            2e:ad:73:e8:eb:9b:ba:98:45:4e:a0:61:67:a3:29:c7:4a:41:76:6e
        Signature Algorithm: sha1WithRSAEncryption
        Issuer: C=AU, O=Dodgy Brothers, CN=Dodgy CA
        Validity
            Not Before: Oct 31 21:31:26 2021 GMT
            Not After : Oct 31 21:31:26 2022 GMT
        Subject: C=AU, O=Dodgy Brothers, CN=Brother 1, CN=lastupdate_utctime
        Subject Public Key Info:
            Public Key Algorithm: rsaEncryption
                Public-Key: (2048 bit)
                Modulus:
                    00:be:95:86:fa:71:4c:6a:ea:51:98:50:4b:99:a1:
                    2c:66:15:f3:60:f3:e1:ff:69:fb:ce:48:01:1d:fe:
                    e1:2c:38:b0:e3:bd:8f:4b:48:a7:7e:3a:c6:73:e3:
                    ab:bf:e1:da:6e:96:f5:fe:c3:e4:b4:a8:ad:bc:56:
                    34:d4:96:25:74:27:c3:10:db:35:10:25:1c:8e:4b:
                    81:9b:fb:42:04:7c:6f:3d:e2:38:6c:0e:e4:2e:8e:
                    2a:18:6d:30:cd:67:2a:23:6b:37:cf:05:9f:cc:b7:
                    59:58:7f:ba:c4:0a:3f:8c:a4:ad:cb:98:9c:c0:f2:
                    8f:69:67:0f:c1:4e:33:cf:fc:85:5e:bb:5e:cf:93:
                    b0:cf:d9:f4:52:79:87:b1:f8:4d:15:68:65:d5:b7:
                    19:08:63:7f:5e:b1:34:ad:05:8f:5a:f0:e4:e1:8f:
                    25:f2:5c:5c:61:95:b0:56:2d:31:2b:08:65:79:e5:
                    b1:3b:9d:3e:b9:52:4b:ac:5d:c4:58:66:85:8d:81:
                    b3:04:28:f4:3f:2f:ac:92:01:62:d5:fd:8e:0b:da:
                    02:0c:7a:c7:6e:09:1c:ac:1c:b2:4c:d7:54:b8:26:
                    33:b2:5f:14:f3:b1:f9:3d:62:4d:40:99:6b:b6:e7:
                    89:58:97:d6:d4:4d:ea:4b:68:52:f3:3c:a8:b1:35:
                    88:db
                Exponent: 65537 (0x10001)
        X509v3 extensions:
            X509v3 Subject Key Identifier: 
                A1:DF:33:C3:CF:3E:53:41:A7:68:44:CC:AA:19:E1:84:C9:0D:BC:C6
            X509v3 Authority Key Identifier: 
                keyid:B4:11:33:F1:D7:E2:5E:F7:53:9E:20:22:10:4F:86:06:BF:1F:C9:5E
                DirName:/C=AU/O=Dodgy Brothers/CN=Dodgy CA
                serial:33:6A:68:2F:7B:40:2C:82:B6:95:D6:5A:C6:5A:BB:0C:10:4D:C6:11
            X509v3 Basic Constraints: critical
                CA:TRUE, pathlen:1
            X509v3 Key Usage: 
                Certificate Sign, CRL Sign
            X509v3 Issuer Alternative Name: 
                <EMPTY>

    Signature Algorithm: sha1WithRSAEncryption
    Signature Value:
        18:32:07:b2:cc:e4:5e:2d:22:85:dd:98:1e:fe:af:a8:c4:bc:
        1f:96:a2:59:94:c5:a2:93:18:48:14:a2:26:c7:98:8d:d8:9c:
        f8:3f:99:28:7a:ae:6f:b9:78:b5:ea:44:c9:65:c2:d9:ef:60:
        aa:a3:4a:7b:91:18:c4:3e:56:28:9e:8b:4f:a0:0e:17:fe:2a:
        38:3c:ba:46:2b:dd:a1:e5:0a:74:ea:ed:44:8e:37:01:3e:fb:
        20:2e:4f:6d:c1:b4:2b:7c:15:16:fa:a0:99:b4:23:1b:af:3f:
        16:9d:7c:0e:bf:cd:78:c7:17:4b:ec:1f:cc:ad:44:28:9a:3f:
        8c:ee:a1:df:08:e8:33:46:a1:ae:c8:2a:4c:d0:9f:8a:01:e9:
        85:af:a2:6c:8e:a6:1a:2a:64:9f:33:ff:74:84:c7:f4:e8:e1:
        6e:f4:79:11:7a:03:89:31:fc:f5:2e:d3:bf:3a:fc:87:17:8b:
        ed:12:f9:99:60:2f:b5:4d:ec:ef:7b:84:90:ef:f9:ca:0a:45:
        08:ec:f9:46:99:9c:09:4d:1f:2c:89:19:3c:47:f7:8f:e8:74:
        88:b6:45:23:a2:eb:b8:75:b4:e7:9e:6a:f7:ef:53:dd:49:53:
        e7:ce:ea:e3:aa:fe:8e:26:93:9c:db:84:46:b7:01:4a:16:37:
        3c:a4:af:cb
-----BEGIN CERTIFICATE-----
MIID4zCCAsugAwIBAgIULq1z6OubuphFTqBhZ6Mpx0pBdm4wDQYJKoZIhvcNAQEF
BQAwOTELMAkGA1UEBhMCQVUxFzAVBgNVBAoMDkRvZGd5IEJyb3RoZXJzMREwDwYD
VQQDDAhEb2RneSBDQTAeFw0yMTEwMzEyMTMxMjZaFw0yMjEwMzEyMTMxMjZaMFcx
CzAJBgNVBAYTAkFVMRcwFQYDVQQKDA5Eb2RneSBCcm90aGVyczESMBAGA1UEAwwJ
QnJvdGhlciAxMRswGQYDVQQDDBJsYXN0dXBkYXRlX3V0Y3RpbWUwggEiMA0GCSqG
SIb3DQEBAQUAA4IBDwAwggEKAoIBAQC+lYb6cUxq6lGYUEuZoSxmFfNg8+H/afvO
SAEd/uEsOLDjvY9LSKd+OsZz46u/4dpulvX+w+S0qK28VjTUliV0J8MQ2zUQJRyO
S4Gb+0IEfG894jhsDuQujioYbTDNZyojazfPBZ/Mt1lYf7rECj+MpK3LmJzA8o9p
Zw/BTjPP/IVeu17Pk7DP2fRSeYex+E0VaGXVtxkIY39esTStBY9a8OThjyXyXFxh
lbBWLTErCGV55bE7nT65UkusXcRYZoWNgbMEKPQ/L6ySAWLV/Y4L2gIMesduCRys
HLJM11S4JjOyXxTzsfk9Yk1AmWu254lYl9bUTepLaFLzPKixNYjbAgMBAAGjgcQw
gcEwHQYDVR0OBBYEFKHfM8PPPlNBp2hEzKoZ4YTJDbzGMHQGA1UdIwRtMGuAFLQR
M/HX4l73U54gIhBPhga/H8leoT2kOzA5MQswCQYDVQQGEwJBVTEXMBUGA1UECgwO
RG9kZ3kgQnJvdGhlcnMxETAPBgNVBAMMCERvZGd5IENBghQzamgve0AsgraV1lrG
WrsMEE3GETASBgNVHRMBAf8ECDAGAQH/AgEBMAsGA1UdDwQEAwIBBjAJBgNVHRIE
AjAAMA0GCSqGSIb3DQEBBQUAA4IBAQAYMgeyzOReLSKF3Zge/q+oxLwflqJZlMWi
kxhIFKImx5iN2Jz4P5koeq5vuXi16kTJZcLZ72Cqo0p7kRjEPlYonotPoA4X/io4
PLpGK92h5Qp06u1EjjcBPvsgLk9twbQrfBUW+qCZtCMbrz8WnXwOv814xxdL7B/M
rUQomj+M7qHfCOgzRqGuyCpM0J+KAemFr6JsjqYaKmSfM/90hMf06OFu9HkRegOJ
Mfz1LtO/OvyHF4vtEvmZYC+1Tezve4SQ7/nKCkUI7PlGmZwJTR8siRk8R/eP6HSI
tkUjouu4dbTnnmr371PdSVPnzurjqv6OJpOc24RGtwFKFjc8pK/L
-----END CERTIFICATE-----
