Certificate:
    Data:
        Version: 3 (0x2)
        Serial Number:
            2e:ad:73:e8:eb:9b:ba:98:45:4e:a0:61:67:a3:29:c7:4a:41:76:6c
        Signature Algorithm: sha1WithRSAEncryption
        Issuer: C=AU, O=Dodgy Brothers, CN=Dodgy CA
        Validity
            Not Before: Oct 31 21:31:24 2021 GMT
            Not After : Oct 31 21:31:24 2022 GMT
        Subject: C=AU, O=Dodgy Brothers, CN=Brother 1, CN=notimes
        Subject Public Key Info:
            Public Key Algorithm: rsaEncryption
                Public-Key: (2048 bit)
                Modulus:
                    00:be:95:86:fa:71:4c:6a:ea:51:98:50:4b:99:a1:
                    2c:66:15:f3:60:f3:e1:ff:69:fb:ce:48:01:1d:fe:
                    e1:2c:38:b0:e3:bd:8f:4b:48:a7:7e:3a:c6:73:e3:
                    ab:bf:e1:da:6e:96:f5:fe:c3:e4:b4:a8:ad:bc:56:
                    34:d4:96:25:74:27:c3:10:db:35:10:25:1c:8e:4b:
                    81:9b:fb:42:04:7c:6f:3d:e2:38:6c:0e:e4:2e:8e:
                    2a:18:6d:30:cd:67:2a:23:6b:37:cf:05:9f:cc:b7:
                    59:58:7f:ba:c4:0a:3f:8c:a4:ad:cb:98:9c:c0:f2:
                    8f:69:67:0f:c1:4e:33:cf:fc:85:5e:bb:5e:cf:93:
                    b0:cf:d9:f4:52:79:87:b1:f8:4d:15:68:65:d5:b7:
                    19:08:63:7f:5e:b1:34:ad:05:8f:5a:f0:e4:e1:8f:
                    25:f2:5c:5c:61:95:b0:56:2d:31:2b:08:65:79:e5:
                    b1:3b:9d:3e:b9:52:4b:ac:5d:c4:58:66:85:8d:81:
                    b3:04:28:f4:3f:2f:ac:92:01:62:d5:fd:8e:0b:da:
                    02:0c:7a:c7:6e:09:1c:ac:1c:b2:4c:d7:54:b8:26:
                    33:b2:5f:14:f3:b1:f9:3d:62:4d:40:99:6b:b6:e7:
                    89:58:97:d6:d4:4d:ea:4b:68:52:f3:3c:a8:b1:35:
                    88:db
                Exponent: 65537 (0x10001)
        X509v3 extensions:
            X509v3 Subject Key Identifier: 
                A1:DF:33:C3:CF:3E:53:41:A7:68:44:CC:AA:19:E1:84:C9:0D:BC:C6
            X509v3 Authority Key Identifier: 
                keyid:B4:11:33:F1:D7:E2:5E:F7:53:9E:20:22:10:4F:86:06:BF:1F:C9:5E
                DirName:/C=AU/O=Dodgy Brothers/CN=Dodgy CA
                serial:33:6A:68:2F:7B:40:2C:82:B6:95:D6:5A:C6:5A:BB:0C:10:4D:C6:11
            X509v3 Basic Constraints: critical
                CA:TRUE, pathlen:1
            X509v3 Key Usage: 
                Certificate Sign, CRL Sign
            X509v3 Issuer Alternative Name: 
                <EMPTY>

    Signature Algorithm: sha1WithRSAEncryption
    Signature Value:
        1f:b0:8a:b4:0c:dc:85:a7:fd:92:11:30:10:40:65:ae:be:86:
        7e:c6:08:89:d4:cc:4c:02:53:14:cb:53:76:b4:bd:3b:dc:9a:
        4d:8c:f8:a4:c2:a4:65:32:66:6e:00:85:1a:49:85:a7:cb:a1:
        a7:11:4c:83:ca:f1:bc:89:4b:16:56:6b:05:e3:5f:77:6e:3b:
        38:b7:21:c2:2c:2d:50:b3:8c:59:7f:12:ad:70:c0:f6:68:71:
        ea:26:e6:77:bc:a8:c4:01:2a:27:2f:6f:03:ff:20:3e:28:23:
        1c:c8:e6:a1:aa:d1:e0:8a:bb:9e:70:c6:99:78:15:5e:d3:4d:
        00:fd:41:cf:ca:ec:b7:2d:ac:fa:60:66:bc:40:d6:2a:08:06:
        90:e8:0f:0e:0f:59:80:57:7b:9e:06:63:b0:77:ca:a1:f8:e6:
        d9:37:d5:0a:d5:b5:9f:ee:1c:2a:df:08:44:92:fd:f7:ec:1a:
        f7:c8:fb:ae:b2:20:35:d8:ac:c1:3d:19:c3:df:04:e3:0c:c4:
        2b:32:73:df:a0:08:c4:f1:07:b9:59:58:42:de:56:9f:3c:94:
        e2:9e:1c:2b:11:aa:3b:b0:72:82:20:11:10:f5:29:2d:86:20:
        8b:85:88:45:bc:fe:82:22:1c:f1:d2:f0:26:19:f7:83:0e:f4:
        b0:61:37:77
-----BEGIN CERTIFICATE-----
MIID2DCCAsCgAwIBAgIULq1z6OubuphFTqBhZ6Mpx0pBdmwwDQYJKoZIhvcNAQEF
BQAwOTELMAkGA1UEBhMCQVUxFzAVBgNVBAoMDkRvZGd5IEJyb3RoZXJzMREwDwYD
VQQDDAhEb2RneSBDQTAeFw0yMTEwMzEyMTMxMjRaFw0yMjEwMzEyMTMxMjRaMEwx
CzAJBgNVBAYTAkFVMRcwFQYDVQQKDA5Eb2RneSBCcm90aGVyczESMBAGA1UEAwwJ
QnJvdGhlciAxMRAwDgYDVQQDDAdub3RpbWVzMIIBIjANBgkqhkiG9w0BAQEFAAOC
AQ8AMIIBCgKCAQEAvpWG+nFMaupRmFBLmaEsZhXzYPPh/2n7zkgBHf7hLDiw472P
S0infjrGc+Orv+Habpb1/sPktKitvFY01JYldCfDENs1ECUcjkuBm/tCBHxvPeI4
bA7kLo4qGG0wzWcqI2s3zwWfzLdZWH+6xAo/jKSty5icwPKPaWcPwU4zz/yFXrte
z5Owz9n0UnmHsfhNFWhl1bcZCGN/XrE0rQWPWvDk4Y8l8lxcYZWwVi0xKwhleeWx
O50+uVJLrF3EWGaFjYGzBCj0Py+skgFi1f2OC9oCDHrHbgkcrByyTNdUuCYzsl8U
87H5PWJNQJlrtueJWJfW1E3qS2hS8zyosTWI2wIDAQABo4HEMIHBMB0GA1UdDgQW
BBSh3zPDzz5TQadoRMyqGeGEyQ28xjB0BgNVHSMEbTBrgBS0ETPx1+Je91OeICIQ
T4YGvx/JXqE9pDswOTELMAkGA1UEBhMCQVUxFzAVBgNVBAoMDkRvZGd5IEJyb3Ro
ZXJzMREwDwYDVQQDDAhEb2RneSBDQYIUM2poL3tALIK2ldZaxlq7DBBNxhEwEgYD
VR0TAQH/BAgwBgEB/wIBATALBgNVHQ8EBAMCAQYwCQYDVR0SBAIwADANBgkqhkiG
9w0BAQUFAAOCAQEAH7CKtAzchaf9khEwEEBlrr6GfsYIidTMTAJTFMtTdrS9O9ya
TYz4pMKkZTJmbgCFGkmFp8uhpxFMg8rxvIlLFlZrBeNfd247OLchwiwtULOMWX8S
rXDA9mhx6ibmd7yoxAEqJy9vA/8gPigjHMjmoarR4Iq7nnDGmXgVXtNNAP1Bz8rs
ty2s+mBmvEDWKggGkOgPDg9ZgFd7ngZjsHfKofjm2TfVCtW1n+4cKt8IRJL99+wa
98j7rrIgNdiswT0Zw98E4wzEKzJz36AIxPEHuVlYQt5WnzyU4p4cKxGqO7BygiAR
EPUpLYYgi4WIRbz+giIc8dLwJhn3gw70sGE3dw==
-----END CERTIFICATE-----
