Certificate:
    Data:
        Version: 3 (0x2)
        Serial Number:
            33:6a:68:2f:7b:40:2c:82:b6:95:d6:5a:c6:5a:bb:0c:10:4d:c6:11
        Signature Algorithm: sha1WithRSAEncryption
        Issuer: C=AU, O=Dodgy Brothers, CN=Dodgy CA
        Validity
            Not Before: Oct 31 21:31:22 2021 GMT
            Not After : Oct 30 21:31:22 2024 GMT
        Subject: C=AU, O=Dodgy Brothers, CN=Dodgy CA
        Subject Public Key Info:
            Public Key Algorithm: rsaEncryption
                Public-Key: (2048 bit)
                Modulus:
                    00:96:9d:a4:3d:00:4b:1c:5f:c6:cb:dd:8f:d2:31:
                    b2:88:15:cc:c4:86:2c:5c:e2:69:8b:84:f4:a7:a3:
                    53:df:91:e3:bf:51:89:fb:f0:7c:10:0d:3b:ad:ac:
                    35:62:75:f5:7f:ff:f4:6e:54:8f:05:a6:92:23:b3:
                    9f:59:39:d0:39:18:b0:10:40:de:62:73:8a:4e:b0:
                    8e:df:dc:e7:c9:41:22:54:84:80:08:29:bc:35:3c:
                    86:df:30:de:dd:b4:24:ff:7e:62:a5:c0:7a:e8:2a:
                    16:3f:d6:97:da:c5:42:db:2f:69:64:91:cb:08:d7:
                    56:5a:79:7f:1b:84:41:e9:4d:9d:77:09:10:a8:6c:
                    29:33:44:c6:c0:54:65:e6:e8:e3:f2:75:05:6a:64:
                    95:6c:c0:f4:fd:25:61:6e:48:36:f0:c0:03:07:05:
                    d6:7c:e5:11:fd:18:e8:4a:2d:d3:72:0c:37:28:36:
                    31:31:38:85:e8:71:8d:d8:02:49:c8:bc:19:89:c5:
                    8a:b1:3f:a2:35:ea:aa:90:1c:64:68:7b:af:67:6a:
                    5a:06:54:0f:50:e1:f9:b4:f6:be:3a:d4:ce:3f:1e:
                    4c:7d:c6:77:32:3e:a2:58:ed:db:dd:74:d8:92:14:
                    6a:a8:f7:cb:34:58:91:a8:7c:14:b1:7d:08:b3:4d:
                    b1:47
                Exponent: 65537 (0x10001)
        X509v3 extensions:
            X509v3 Subject Key Identifier: 
                B4:11:33:F1:D7:E2:5E:F7:53:9E:20:22:10:4F:86:06:BF:1F:C9:5E
            X509v3 Authority Key Identifier: 
                keyid:B4:11:33:F1:D7:E2:5E:F7:53:9E:20:22:10:4F:86:06:BF:1F:C9:5E
                DirName:/C=AU/O=Dodgy Brothers/CN=Dodgy CA
                serial:33:6A:68:2F:7B:40:2C:82:B6:95:D6:5A:C6:5A:BB:0C:10:4D:C6:11
            X509v3 Basic Constraints: critical
                CA:TRUE, pathlen:1
            X509v3 Key Usage: 
                Certificate Sign, CRL Sign
            X509v3 Issuer Alternative Name: 
                <EMPTY>

    Signature Algorithm: sha1WithRSAEncryption
    Signature Value:
        75:e9:d0:b7:8b:14:d9:92:50:ea:33:a3:ff:bd:07:4f:68:f6:
        48:c9:d6:82:d9:3a:9c:80:22:c4:23:fd:3f:ee:b7:6f:6b:1e:
        60:f1:17:6b:41:31:03:7d:b6:89:d0:31:c1:a8:24:b0:cc:37:
        b2:6a:c4:da:73:c8:f6:3c:27:41:14:55:17:06:c0:bc:47:7f:
        b9:ed:ba:6c:b7:35:8b:82:1b:34:42:48:3b:0d:5d:a1:dd:53:
        4e:fa:9d:f0:59:b6:9b:85:07:d3:b7:18:ea:25:14:14:7b:e2:
        d6:25:79:a2:b3:19:ae:29:50:51:bc:e1:63:5b:41:4a:cd:75:
        f1:df:92:03:4a:bd:17:c4:6d:5e:b8:12:e6:df:4b:4a:a0:aa:
        ed:a5:12:0f:94:a6:67:0d:46:aa:c2:31:38:5b:ac:b2:db:6f:
        f6:05:b5:ed:2a:09:cd:be:b6:eb:7b:28:bc:9e:2a:02:76:f0:
        16:4b:e0:2a:c5:ae:27:82:32:99:c5:57:a1:5e:28:da:87:b0:
        f0:01:be:94:e5:b2:54:08:88:df:0d:73:dd:38:19:d8:cf:1e:
        ca:f6:4b:cd:5f:56:a8:fc:95:61:6b:5e:16:09:e6:d6:7b:01:
        ed:64:fa:a0:eb:bf:67:d5:bb:5d:01:7d:22:89:29:40:4f:5e:
        11:58:58:b8
-----BEGIN CERTIFICATE-----
MIIDxTCCAq2gAwIBAgIUM2poL3tALIK2ldZaxlq7DBBNxhEwDQYJKoZIhvcNAQEF
BQAwOTELMAkGA1UEBhMCQVUxFzAVBgNVBAoMDkRvZGd5IEJyb3RoZXJzMREwDwYD
VQQDDAhEb2RneSBDQTAeFw0yMTEwMzEyMTMxMjJaFw0yNDEwMzAyMTMxMjJaMDkx
CzAJBgNVBAYTAkFVMRcwFQYDVQQKDA5Eb2RneSBCcm90aGVyczERMA8GA1UEAwwI
RG9kZ3kgQ0EwggEiMA0GCSqGSIb3DQEBAQUAA4IBDwAwggEKAoIBAQCWnaQ9AEsc
X8bL3Y/SMbKIFczEhixc4mmLhPSno1PfkeO/UYn78HwQDTutrDVidfV///RuVI8F
ppIjs59ZOdA5GLAQQN5ic4pOsI7f3OfJQSJUhIAIKbw1PIbfMN7dtCT/fmKlwHro
KhY/1pfaxULbL2lkkcsI11ZaeX8bhEHpTZ13CRCobCkzRMbAVGXm6OPydQVqZJVs
wPT9JWFuSDbwwAMHBdZ85RH9GOhKLdNyDDcoNjExOIXocY3YAknIvBmJxYqxP6I1
6qqQHGRoe69naloGVA9Q4fm09r461M4/Hkx9xncyPqJY7dvddNiSFGqo98s0WJGo
fBSxfQizTbFHAgMBAAGjgcQwgcEwHQYDVR0OBBYEFLQRM/HX4l73U54gIhBPhga/
H8leMHQGA1UdIwRtMGuAFLQRM/HX4l73U54gIhBPhga/H8leoT2kOzA5MQswCQYD
VQQGEwJBVTEXMBUGA1UECgwORG9kZ3kgQnJvdGhlcnMxETAPBgNVBAMMCERvZGd5
IENBghQzamgve0AsgraV1lrGWrsMEE3GETASBgNVHRMBAf8ECDAGAQH/AgEBMAsG
A1UdDwQEAwIBBjAJBgNVHRIEAjAAMA0GCSqGSIb3DQEBBQUAA4IBAQB16dC3ixTZ
klDqM6P/vQdPaPZIydaC2TqcgCLEI/0/7rdvax5g8RdrQTEDfbaJ0DHBqCSwzDey
asTac8j2PCdBFFUXBsC8R3+57bpstzWLghs0Qkg7DV2h3VNO+p3wWbabhQfTtxjq
JRQUe+LWJXmisxmuKVBRvOFjW0FKzXXx35IDSr0XxG1euBLm30tKoKrtpRIPlKZn
DUaqwjE4W6yy22/2BbXtKgnNvrbreyi8nioCdvAWS+Aqxa4ngjKZxVehXijah7Dw
Ab6U5bJUCIjfDXPdOBnYzx7K9kvNX1ao/JVha14WCebWewHtZPqg679n1btdAX0i
iSlAT14RWFi4
-----END CERTIFICATE-----
